target datalayout = "e-m:e-p270:32:32-p271:32:32-p272:64:64-i64:64-i128:128-f80:128-n8:16:32:64-S128"
target triple = "x86_64-pc-linux-gnu"

@.str = private unnamed_addr constant [6 x i32] [i32 117, i32 116, i32 102, i32 45, i32 56, i32 0], align 4

; Function Attrs: nounwind uwtable
define hidden ptr @_Py_GetLocaleEncoding() #0 {
  %1 = alloca ptr, align 8
  %2 = alloca ptr, align 8
  %3 = alloca i32, align 4
  %4 = alloca ptr, align 8
  %5 = alloca i32, align 4
  call void @llvm.lifetime.start.p0(i64 8, ptr %2) #10
  %6 = call ptr @nl_langinfo(i32 noundef 14) #10
  store ptr %6, ptr %2, align 8, !tbaa !180
  %7 = load ptr, ptr %2, align 8, !tbaa !180
  %8 = icmp ne ptr %7, null
  br i1 %8, label %9, label %15

9:                                                ; preds = %0
  %10 = load ptr, ptr %2, align 8, !tbaa !180
  %11 = getelementptr i8, ptr %10, i64 0
  %12 = load i8, ptr %11, align 1, !tbaa !181
  %13 = sext i8 %12 to i32
  %14 = icmp eq i32 %13, 0
  br i1 %14, label %15, label %17

15:                                               ; preds = %9, %0
  %16 = call ptr @_PyMem_RawWcsdup(ptr noundef @.str)
  store ptr %16, ptr %1, align 8
  store i32 1, ptr %3, align 4
  br label %26

17:                                               ; preds = %9
  call void @llvm.lifetime.start.p0(i64 8, ptr %4) #10
  call void @llvm.lifetime.start.p0(i64 4, ptr %5) #10
  %18 = load ptr, ptr %2, align 8, !tbaa !180
  %19 = call i32 @decode_current_locale(ptr noundef %18, ptr noundef %4, ptr noundef null, ptr noundef null, i32 noundef 2)
  store i32 %19, ptr %5, align 4, !tbaa !4
  %20 = load i32, ptr %5, align 4, !tbaa !4
  %21 = icmp slt i32 %20, 0
  br i1 %21, label %22, label %23

22:                                               ; preds = %17
  store ptr null, ptr %1, align 8
  store i32 1, ptr %3, align 4
  br label %25

23:                                               ; preds = %17
  %24 = load ptr, ptr %4, align 8, !tbaa !177
  store ptr %24, ptr %1, align 8
  store i32 1, ptr %3, align 4
  br label %25

25:                                               ; preds = %23, %22
  call void @llvm.lifetime.end.p0(i64 4, ptr %5) #10
  call void @llvm.lifetime.end.p0(i64 8, ptr %4) #10
  br label %26

26:                                               ; preds = %25, %15
  call void @llvm.lifetime.end.p0(i64 8, ptr %2) #10
  %27 = load ptr, ptr %1, align 8
  ret ptr %27
}

; Function Attrs: nounwind uwtable
define hidden ptr @_Py_GetLocaleEncodingObject() #0 {
  %1 = alloca ptr, align 8
  %2 = alloca ptr, align 8
  %3 = alloca i32, align 4
  %4 = alloca ptr, align 8
  call void @llvm.lifetime.start.p0(i64 8, ptr %2) #10
  %5 = call ptr @_Py_GetLocaleEncoding()
  store ptr %5, ptr %2, align 8, !tbaa !177
  %6 = load ptr, ptr %2, align 8, !tbaa !177
  %7 = icmp eq ptr %6, null
  br i1 %7, label %8, label %10

8:                                                ; preds = %0
  %9 = call ptr @PyErr_NoMemory()
  store ptr null, ptr %1, align 8
  store i32 1, ptr %3, align 4
  br label %15

10:                                               ; preds = %0
  call void @llvm.lifetime.start.p0(i64 8, ptr %4) #10
  %11 = load ptr, ptr %2, align 8, !tbaa !177
  %12 = call ptr @PyUnicode_FromWideChar(ptr noundef %11, i64 noundef -1)
  store ptr %12, ptr %4, align 8, !tbaa !178
  %13 = load ptr, ptr %2, align 8, !tbaa !177
  call void @PyMem_RawFree(ptr noundef %13)
  %14 = load ptr, ptr %4, align 8, !tbaa !178
  store ptr %14, ptr %1, align 8
  store i32 1, ptr %3, align 4
  call void @llvm.lifetime.end.p0(i64 8, ptr %4) #10
  br label %15

15:                                               ; preds = %10, %8
  call void @llvm.lifetime.end.p0(i64 8, ptr %2) #10
  %16 = load ptr, ptr %1, align 8
  ret ptr %16
}