; Function Attrs: nounwind uwtable
define hidden ptr @_Py_GetLocaleEncodingObject() local_unnamed_addr #0 {
  %1 = alloca ptr, align 8
  %2 = tail call ptr @nl_langinfo(i32 noundef 14) #17
  %.not.i = icmp eq ptr %2, null
  br i1 %.not.i, label %6, label %3

3:                                                ; preds = %0
  %4 = load i8, ptr %2, align 1, !tbaa !175
  %5 = icmp eq i8 %4, 0
  br i1 %5, label %6, label %8

6:                                                ; preds = %3, %0
  %7 = tail call ptr @_PyMem_RawWcsdup(ptr noundef nonnull @.str) #17
  br label %_Py_GetLocaleEncoding.exit

8:                                                ; preds = %3
  call void @llvm.lifetime.start.p0(i64 8, ptr nonnull %1) #17
  %9 = call fastcc i32 @decode_current_locale(ptr noundef nonnull %2, ptr noundef nonnull %1, ptr noundef null, ptr noundef null, i32 noundef 2)
  %10 = icmp slt i32 %9, 0
  %11 = load ptr, ptr %1, align 8
  call void @llvm.lifetime.end.p0(i64 8, ptr nonnull %1) #17
  br i1 %10, label %_Py_GetLocaleEncoding.exit.thread, label %_Py_GetLocaleEncoding.exit

_Py_GetLocaleEncoding.exit:                       ; preds = %8, %6
  %.0.i = phi ptr [ %7, %6 ], [ %11, %8 ]
  %12 = icmp eq ptr %.0.i, null
  br i1 %12, label %_Py_GetLocaleEncoding.exit.thread, label %14

_Py_GetLocaleEncoding.exit.thread:                ; preds = %8, %_Py_GetLocaleEncoding.exit
  %13 = tail call ptr @PyErr_NoMemory() #17
  br label %16

14:                                               ; preds = %_Py_GetLocaleEncoding.exit
  %15 = tail call ptr @PyUnicode_FromWideChar(ptr noundef nonnull %.0.i, i64 noundef -1) #17
  tail call void @PyMem_RawFree(ptr noundef nonnull %.0.i) #17
  br label %16

16:                                               ; preds = %14, %_Py_GetLocaleEncoding.exit.thread
  %.0 = phi ptr [ null, %_Py_GetLocaleEncoding.exit.thread ], [ %15, %14 ]
  ret ptr %.0
}